target datalayout = "e-m:e-p270:32:32-p271:32:32-p272:64:64-i64:64-i128:128-f80:128-n8:16:32:64-S128"
target triple = "x86_64-pc-linux-gnu"

%struct.LogicalRepTyp = type { i32, ptr, ptr }

@.str.46 = private unnamed_addr constant [11 x i8] c"pg_catalog\00", align 1

; Function Attrs: nounwind uwtable
define internal ptr @logicalrep_read_namespace(ptr noundef %0) #0 {
  %2 = alloca ptr, align 8
  %3 = alloca ptr, align 8
  store ptr %0, ptr %2, align 8
  call void @llvm.lifetime.start.p0(i64 8, ptr %3) #9
  %4 = load ptr, ptr %2, align 8
  %5 = call ptr @pq_getmsgstring(ptr noundef %4)
  store ptr %5, ptr %3, align 8
  %6 = load ptr, ptr %3, align 8
  %7 = getelementptr inbounds i8, ptr %6, i64 0
  %8 = load i8, ptr %7, align 1
  %9 = sext i8 %8 to i32
  %10 = icmp eq i32 %9, 0
  br i1 %10, label %11, label %12

11:                                               ; preds = %1
  store ptr @.str.46, ptr %3, align 8
  br label %12

12:                                               ; preds = %11, %1
  %13 = load ptr, ptr %3, align 8
  call void @llvm.lifetime.end.p0(i64 8, ptr %3) #9
  ret ptr %13
}

; Function Attrs: nounwind uwtable
define dso_local void @logicalrep_read_typ(ptr noundef %0, ptr noundef %1) #0 {
  %3 = alloca ptr, align 8
  %4 = alloca ptr, align 8
  store ptr %0, ptr %3, align 8
  store ptr %1, ptr %4, align 8
  %5 = load ptr, ptr %3, align 8
  %6 = call i32 @pq_getmsgint(ptr noundef %5, i32 noundef 4)
  %7 = load ptr, ptr %4, align 8
  %8 = getelementptr inbounds nuw %struct.LogicalRepTyp, ptr %7, i32 0, i32 0
  store i32 %6, ptr %8, align 8
  %9 = load ptr, ptr %3, align 8
  %10 = call ptr @logicalrep_read_namespace(ptr noundef %9)
  %11 = call ptr @pstrdup(ptr noundef %10)
  %12 = load ptr, ptr %4, align 8
  %13 = getelementptr inbounds nuw %struct.LogicalRepTyp, ptr %12, i32 0, i32 1
  store ptr %11, ptr %13, align 8
  %14 = load ptr, ptr %3, align 8
  %15 = call ptr @pq_getmsgstring(ptr noundef %14)
  %16 = call ptr @pstrdup(ptr noundef %15)
  %17 = load ptr, ptr %4, align 8
  %18 = getelementptr inbounds nuw %struct.LogicalRepTyp, ptr %17, i32 0, i32 2
  store ptr %16, ptr %18, align 8
  ret void
}