; Function Attrs: nounwind uwtable
define dso_local void @logicalrep_read_typ(ptr noundef %0, ptr noundef writeonly captures(none) initializes((0, 4), (8, 24)) %1) local_unnamed_addr #0 {
  %3 = tail call i32 @pq_getmsgint(ptr noundef %0, i32 noundef 4) #8
  store i32 %3, ptr %1, align 8
  %4 = tail call ptr @pq_getmsgstring(ptr noundef %0) #8
  %5 = load i8, ptr %4, align 1
  %6 = icmp eq i8 %5, 0
  %spec.store.select.i = select i1 %6, ptr @.str.46, ptr %4
  %7 = tail call ptr @pstrdup(ptr noundef nonnull %spec.store.select.i) #8
  %8 = getelementptr inbounds nuw i8, ptr %1, i64 8
  store ptr %7, ptr %8, align 8
  %9 = tail call ptr @pq_getmsgstring(ptr noundef %0) #8
  %10 = tail call ptr @pstrdup(ptr noundef %9) #8
  %11 = getelementptr inbounds nuw i8, ptr %1, i64 16
  store ptr %10, ptr %11, align 8
  ret void
}